target datalayout = "e-m:e-p270:32:32-p271:32:32-p272:64:64-i64:64-i128:128-f80:128-n8:16:32:64-S128"
target triple = "x86_64-pc-linux-gnu"

%struct.SampleEntry = type { ptr, ptr, ptr }

; Function Attrs: mustprogress nounwind uwtable
define internal noundef i32 @_ZL14CompareSamplesPKvS0_(ptr noundef %0, ptr noundef %1) #1 {
  %3 = alloca ptr, align 8
  %4 = alloca ptr, align 8
  %5 = alloca ptr, align 8
  %6 = alloca ptr, align 8
  %7 = alloca i32, align 4
  store ptr %0, ptr %3, align 8, !tbaa !10
  store ptr %1, ptr %4, align 8, !tbaa !10
  call void @llvm.lifetime.start.p0(i64 8, ptr %5) #14
  %8 = load ptr, ptr %3, align 8, !tbaa !10
  store ptr %8, ptr %5, align 8, !tbaa !78
  call void @llvm.lifetime.start.p0(i64 8, ptr %6) #14
  %9 = load ptr, ptr %4, align 8, !tbaa !10
  store ptr %9, ptr %6, align 8, !tbaa !78
  call void @llvm.lifetime.start.p0(i64 4, ptr %7) #14
  %10 = load ptr, ptr %5, align 8, !tbaa !78
  %11 = getelementptr inbounds nuw %struct.SampleEntry, ptr %10, i32 0, i32 0
  %12 = load ptr, ptr %11, align 8, !tbaa !80
  %13 = load ptr, ptr %6, align 8, !tbaa !78
  %14 = getelementptr inbounds nuw %struct.SampleEntry, ptr %13, i32 0, i32 0
  %15 = load ptr, ptr %14, align 8, !tbaa !80
  %16 = call i32 @strcmp(ptr noundef %12, ptr noundef %15) #17
  store i32 %16, ptr %7, align 4, !tbaa !4
  %17 = load i32, ptr %7, align 4, !tbaa !4
  %18 = icmp eq i32 %17, 0
  br i1 %18, label %19, label %27

19:                                               ; preds = %2
  %20 = load ptr, ptr %5, align 8, !tbaa !78
  %21 = getelementptr inbounds nuw %struct.SampleEntry, ptr %20, i32 0, i32 1
  %22 = load ptr, ptr %21, align 8, !tbaa !81
  %23 = load ptr, ptr %6, align 8, !tbaa !78
  %24 = getelementptr inbounds nuw %struct.SampleEntry, ptr %23, i32 0, i32 1
  %25 = load ptr, ptr %24, align 8, !tbaa !81
  %26 = call i32 @strcmp(ptr noundef %22, ptr noundef %25) #17
  store i32 %26, ptr %7, align 4, !tbaa !4
  br label %27

27:                                               ; preds = %19, %2
  %28 = load i32, ptr %7, align 4, !tbaa !4
  call void @llvm.lifetime.end.p0(i64 4, ptr %7) #14
  call void @llvm.lifetime.end.p0(i64 8, ptr %6) #14
  call void @llvm.lifetime.end.p0(i64 8, ptr %5) #14
  ret i32 %28
}