; Function Attrs: mustprogress nofree nounwind willreturn memory(read, inaccessiblemem: none) uwtable
define internal noundef i32 @_ZL14CompareSamplesPKvS0_(ptr noundef readonly captures(none) %0, ptr noundef readonly captures(none) %1) #15 {
  %3 = load ptr, ptr %0, align 8, !tbaa !73
  %4 = load ptr, ptr %1, align 8, !tbaa !73
  %5 = tail call i32 @strcmp(ptr noundef nonnull dereferenceable(1) %3, ptr noundef nonnull dereferenceable(1) %4) #25
  %6 = icmp eq i32 %5, 0
  br i1 %6, label %7, label %13

7:                                                ; preds = %2
  %8 = getelementptr inbounds nuw i8, ptr %0, i64 8
  %9 = load ptr, ptr %8, align 8, !tbaa !74
  %10 = getelementptr inbounds nuw i8, ptr %1, i64 8
  %11 = load ptr, ptr %10, align 8, !tbaa !74
  %12 = tail call i32 @strcmp(ptr noundef nonnull dereferenceable(1) %9, ptr noundef nonnull dereferenceable(1) %11) #25
  br label %13

13:                                               ; preds = %7, %2
  %.0 = phi i32 [ %12, %7 ], [ %5, %2 ]
  ret i32 %.0
}